; ModuleID = 'source-C-CXX/56/484.c'
source_filename = "source-C-CXX/56/484.c"
target datalayout = "e-m:e-p270:32:32-p271:32:32-p272:64:64-i64:64-f80:128-n8:16:32:64-S128"
target triple = "x86_64-pc-linux-gnu"

@.str = private unnamed_addr constant [3 x i8] c"%d\00", align 1
@.str.2 = private unnamed_addr constant [4 x i8] c"%c\0A\00", align 1

; Function Attrs: nounwind sspstrong uwtable
define dso_local i32 @main() local_unnamed_addr #0 {
  %1 = alloca [20 x i8], align 16
  %2 = alloca [10 x i8], align 1
  %3 = alloca i32, align 4
  %4 = getelementptr inbounds [20 x i8], [20 x i8]* %1, i64 0, i64 0
  call void @llvm.lifetime.start.p0i8(i64 20, i8* nonnull %4) #6
  %5 = getelementptr inbounds [10 x i8], [10 x i8]* %2, i64 0, i64 0
  call void @llvm.lifetime.start.p0i8(i64 10, i8* nonnull %5) #6
  %6 = bitcast i32* %3 to i8*
  call void @llvm.lifetime.start.p0i8(i64 4, i8* nonnull %6) #6
  %7 = call i32 (i8*, ...) @__isoc99_scanf(i8* getelementptr inbounds ([3 x i8], [3 x i8]* @.str, i64 0, i64 0), i32* nonnull %3)
  %8 = call i32 (i8*, ...) bitcast (i32 (...)* @gets to i32 (i8*, ...)*)(i8* nonnull %5) #6
  %9 = load i32, i32* %3, align 4, !tbaa !5
  %10 = icmp sgt i32 %9, 0
  br i1 %10, label %11, label %97

11:                                               ; preds = %0, %93
  %12 = phi i32 [ %94, %93 ], [ 0, %0 ]
  %13 = call i32 (i8*, ...) bitcast (i32 (...)* @gets to i32 (i8*, ...)*)(i8* nonnull %4) #6
  %14 = call i64 @strlen(i8* noundef nonnull %4) #7
  %15 = shl i64 %14, 32
  %16 = add i64 %15, -4294967296
  %17 = ashr exact i64 %16, 32
  %18 = getelementptr inbounds [20 x i8], [20 x i8]* %1, i64 0, i64 %17
  %19 = load i8, i8* %18, align 1, !tbaa !9
  switch i8 %19, label %93 [
    i8 121, label %20
    i8 114, label %40
    i8 103, label %60
  ]

20:                                               ; preds = %11
  %21 = add i64 %15, -8589934592
  %22 = ashr exact i64 %21, 32
  %23 = getelementptr inbounds [20 x i8], [20 x i8]* %1, i64 0, i64 %22
  %24 = load i8, i8* %23, align 1, !tbaa !9
  %25 = icmp eq i8 %24, 108
  br i1 %25, label %26, label %93

26:                                               ; preds = %20
  %27 = trunc i64 %14 to i32
  %28 = add i32 %27, -3
  %29 = icmp sgt i32 %28, 0
  br i1 %29, label %30, label %86

30:                                               ; preds = %26
  %31 = zext i32 %28 to i64
  br label %32

32:                                               ; preds = %30, %32
  %33 = phi i64 [ 0, %30 ], [ %38, %32 ]
  %34 = getelementptr inbounds [20 x i8], [20 x i8]* %1, i64 0, i64 %33
  %35 = load i8, i8* %34, align 1, !tbaa !9
  %36 = sext i8 %35 to i32
  %37 = call i32 @putchar(i32 %36)
  %38 = add nuw nsw i64 %33, 1
  %39 = icmp eq i64 %38, %31
  br i1 %39, label %86, label %32, !llvm.loop !10

40:                                               ; preds = %11
  %41 = add i64 %15, -8589934592
  %42 = ashr exact i64 %41, 32
  %43 = getelementptr inbounds [20 x i8], [20 x i8]* %1, i64 0, i64 %42
  %44 = load i8, i8* %43, align 1, !tbaa !9
  %45 = icmp eq i8 %44, 101
  br i1 %45, label %46, label %93

46:                                               ; preds = %40
  %47 = trunc i64 %14 to i32
  %48 = add i32 %47, -3
  %49 = icmp sgt i32 %48, 0
  br i1 %49, label %50, label %86

50:                                               ; preds = %46
  %51 = zext i32 %48 to i64
  br label %52

52:                                               ; preds = %50, %52
  %53 = phi i64 [ 0, %50 ], [ %58, %52 ]
  %54 = getelementptr inbounds [20 x i8], [20 x i8]* %1, i64 0, i64 %53
  %55 = load i8, i8* %54, align 1, !tbaa !9
  %56 = sext i8 %55 to i32
  %57 = call i32 @putchar(i32 %56)
  %58 = add nuw nsw i64 %53, 1
  %59 = icmp eq i64 %58, %51
  br i1 %59, label %86, label %52, !llvm.loop !12

60:                                               ; preds = %11
  %61 = add i64 %15, -8589934592
  %62 = ashr exact i64 %61, 32
  %63 = getelementptr inbounds [20 x i8], [20 x i8]* %1, i64 0, i64 %62
  %64 = load i8, i8* %63, align 1, !tbaa !9
  %65 = icmp eq i8 %64, 110
  br i1 %65, label %66, label %93

66:                                               ; preds = %60
  %67 = add i64 %15, -12884901888
  %68 = ashr exact i64 %67, 32
  %69 = getelementptr inbounds [20 x i8], [20 x i8]* %1, i64 0, i64 %68
  %70 = load i8, i8* %69, align 1, !tbaa !9
  %71 = icmp eq i8 %70, 105
  br i1 %71, label %72, label %93

72:                                               ; preds = %66
  %73 = trunc i64 %14 to i32
  %74 = add i32 %73, -4
  %75 = icmp sgt i32 %74, 0
  br i1 %75, label %76, label %86

76:                                               ; preds = %72
  %77 = zext i32 %74 to i64
  br label %78

78:                                               ; preds = %76, %78
  %79 = phi i64 [ 0, %76 ], [ %84, %78 ]
  %80 = getelementptr inbounds [20 x i8], [20 x i8]* %1, i64 0, i64 %79
  %81 = load i8, i8* %80, align 1, !tbaa !9
  %82 = sext i8 %81 to i32
  %83 = call i32 @putchar(i32 %82)
  %84 = add nuw nsw i64 %79, 1
  %85 = icmp eq i64 %84, %77
  br i1 %85, label %86, label %78, !llvm.loop !13

86:                                               ; preds = %78, %52, %32, %72, %46, %26
  %87 = phi i32 [ 0, %26 ], [ 0, %46 ], [ 0, %72 ], [ %28, %32 ], [ %48, %52 ], [ %74, %78 ]
  %88 = zext i32 %87 to i64
  %89 = getelementptr inbounds [20 x i8], [20 x i8]* %1, i64 0, i64 %88
  %90 = load i8, i8* %89, align 1, !tbaa !9
  %91 = sext i8 %90 to i32
  %92 = call i32 (i8*, ...) @printf(i8* nonnull dereferenceable(1) getelementptr inbounds ([4 x i8], [4 x i8]* @.str.2, i64 0, i64 0), i32 %91)
  br label %93

93:                                               ; preds = %86, %11, %20, %40, %60, %66
  %94 = add nuw nsw i32 %12, 1
  %95 = load i32, i32* %3, align 4, !tbaa !5
  %96 = icmp slt i32 %94, %95
  br i1 %96, label %11, label %97, !llvm.loop !14

97:                                               ; preds = %93, %0
  call void @llvm.lifetime.end.p0i8(i64 4, i8* nonnull %6) #6
  call void @llvm.lifetime.end.p0i8(i64 10, i8* nonnull %5) #6
  call void @llvm.lifetime.end.p0i8(i64 20, i8* nonnull %4) #6
  ret i32 0
}

; Function Attrs: argmemonly mustprogress nofree nosync nounwind willreturn
declare void @llvm.lifetime.start.p0i8(i64 immarg, i8* nocapture) #1

; Function Attrs: nofree nounwind
declare noundef i32 @__isoc99_scanf(i8* nocapture noundef readonly, ...) local_unnamed_addr #2

declare i32 @gets(...) local_unnamed_addr #3

; Function Attrs: argmemonly mustprogress nofree nounwind readonly willreturn
declare i64 @strlen(i8* nocapture) local_unnamed_addr #4

; Function Attrs: nofree nounwind
declare noundef i32 @printf(i8* nocapture noundef readonly, ...) local_unnamed_addr #2

; Function Attrs: argmemonly mustprogress nofree nosync nounwind willreturn
declare void @llvm.lifetime.end.p0i8(i64 immarg, i8* nocapture) #1

; Function Attrs: nofree nounwind
declare noundef i32 @putchar(i32 noundef) local_unnamed_addr #5


!llvm.module.flags = !{!0, !1, !2, !3}
!llvm.ident = !{!4}

!0 = !{i32 1, !"wchar_size", i32 4}
!1 = !{i32 7, !"PIC Level", i32 2}
!2 = !{i32 7, !"PIE Level", i32 2}
!3 = !{i32 7, !"uwtable", i32 1}
!4 = !{!"clang version 13.0.0"}
!5 = !{!6, !6, i64 0}
!6 = !{!"int", !7, i64 0}
!7 = !{!"omnipotent char", !8, i64 0}
!8 = !{!"Simple C/C++ TBAA"}
!9 = !{!7, !7, i64 0}
!10 = distinct !{!10, !11}
!11 = !{!"llvm.loop.mustprogress"}
!12 = distinct !{!12, !11}
!13 = distinct !{!13, !11}
!14 = distinct !{!14, !11}
